target datalayout = "e-m:e-p270:32:32-p271:32:32-p272:64:64-i64:64-i128:128-f80:128-n8:16:32:64-S128"
target triple = "x86_64-pc-linux-gnu"

%struct.LogicalTape = type { ptr, i8, i8, i8, i64, i64, i64, i64, ptr, i32, i32, i32, i32, ptr, i32, i32 }
%struct.TapeBlockTrailer = type { i64, i64 }

@.str.1 = private unnamed_addr constant [10 x i8] c"logtape.c\00", align 1
@.str.2 = private unnamed_addr constant [39 x i8] c"invalid logtape state: should be dirty\00", align 1
@__func__.LogicalTapeWrite = private unnamed_addr constant [17 x i8] c"LogicalTapeWrite\00", align 1

; Function Attrs: nounwind uwtable
define dso_local void @LogicalTapeWrite(ptr noundef %0, ptr noundef %1, i64 noundef %2) #0 {
  %4 = alloca ptr, align 8
  %5 = alloca ptr, align 8
  %6 = alloca i64, align 8
  %7 = alloca ptr, align 8
  %8 = alloca i64, align 8
  %9 = alloca i64, align 8
  store ptr %0, ptr %4, align 8
  store ptr %1, ptr %5, align 8
  store i64 %2, ptr %6, align 8
  call void @llvm.lifetime.start.p0(i64 8, ptr %7) #7
  %10 = load ptr, ptr %4, align 8
  %11 = getelementptr inbounds nuw %struct.LogicalTape, ptr %10, i32 0, i32 0
  %12 = load ptr, ptr %11, align 8
  store ptr %12, ptr %7, align 8
  call void @llvm.lifetime.start.p0(i64 8, ptr %8) #7
  %13 = load ptr, ptr %4, align 8
  %14 = getelementptr inbounds nuw %struct.LogicalTape, ptr %13, i32 0, i32 8
  %15 = load ptr, ptr %14, align 8
  %16 = icmp eq ptr %15, null
  br i1 %16, label %17, label %23

17:                                               ; preds = %3
  %18 = call ptr @palloc(i64 noundef 8192)
  %19 = load ptr, ptr %4, align 8
  %20 = getelementptr inbounds nuw %struct.LogicalTape, ptr %19, i32 0, i32 8
  store ptr %18, ptr %20, align 8
  %21 = load ptr, ptr %4, align 8
  %22 = getelementptr inbounds nuw %struct.LogicalTape, ptr %21, i32 0, i32 9
  store i32 8192, ptr %22, align 8
  br label %23

23:                                               ; preds = %17, %3
  %24 = load ptr, ptr %4, align 8
  %25 = getelementptr inbounds nuw %struct.LogicalTape, ptr %24, i32 0, i32 5
  %26 = load i64, ptr %25, align 8
  %27 = icmp eq i64 %26, -1
  br i1 %27, label %28, label %44

28:                                               ; preds = %23
  %29 = load ptr, ptr %7, align 8
  %30 = load ptr, ptr %4, align 8
  %31 = call i64 @ltsGetBlock(ptr noundef %29, ptr noundef %30)
  %32 = load ptr, ptr %4, align 8
  %33 = getelementptr inbounds nuw %struct.LogicalTape, ptr %32, i32 0, i32 5
  store i64 %31, ptr %33, align 8
  %34 = load ptr, ptr %4, align 8
  %35 = getelementptr inbounds nuw %struct.LogicalTape, ptr %34, i32 0, i32 5
  %36 = load i64, ptr %35, align 8
  %37 = load ptr, ptr %4, align 8
  %38 = getelementptr inbounds nuw %struct.LogicalTape, ptr %37, i32 0, i32 4
  store i64 %36, ptr %38, align 8
  %39 = load ptr, ptr %4, align 8
  %40 = getelementptr inbounds nuw %struct.LogicalTape, ptr %39, i32 0, i32 8
  %41 = load ptr, ptr %40, align 8
  %42 = getelementptr inbounds nuw i8, ptr %41, i64 8176
  %43 = getelementptr inbounds nuw %struct.TapeBlockTrailer, ptr %42, i32 0, i32 0
  store i64 -1, ptr %43, align 8
  br label %44

44:                                               ; preds = %28, %23
  br label %45

45:                                               ; preds = %149, %44
  %46 = load i64, ptr %6, align 8
  %47 = icmp ugt i64 %46, 0
  br i1 %47, label %48, label %156

48:                                               ; preds = %45
  %49 = load ptr, ptr %4, align 8
  %50 = getelementptr inbounds nuw %struct.LogicalTape, ptr %49, i32 0, i32 11
  %51 = load i32, ptr %50, align 8
  %52 = icmp sge i32 %51, 8176
  br i1 %52, label %53, label %105

53:                                               ; preds = %48
  call void @llvm.lifetime.start.p0(i64 8, ptr %9) #7
  %54 = load ptr, ptr %4, align 8
  %55 = getelementptr inbounds nuw %struct.LogicalTape, ptr %54, i32 0, i32 3
  %56 = load i8, ptr %55, align 2, !range !4, !noundef !5
  %57 = trunc i8 %56 to i1
  br i1 %57, label %69, label %58

58:                                               ; preds = %53
  br label %59

59:                                               ; preds = %58
  br i1 true, label %60, label %62

60:                                               ; preds = %59
  %61 = call zeroext i1 @errstart_cold(i32 noundef 21, ptr noundef null) #8
  br i1 %61, label %64, label %66

62:                                               ; preds = %59
  %63 = call zeroext i1 @errstart(i32 noundef 21, ptr noundef null)
  br i1 %63, label %64, label %66

64:                                               ; preds = %62, %60
  %65 = call i32 (ptr, ...) @errmsg_internal(ptr noundef @.str.2)
  call void @errfinish(ptr noundef @.str.1, i32 noundef 797, ptr noundef @__func__.LogicalTapeWrite)
  br label %66

66:                                               ; preds = %64, %62, %60
  unreachable

67:                                               ; No predecessors!
  br label %68

68:                                               ; preds = %67
  br label %69

69:                                               ; preds = %68, %53
  %70 = load ptr, ptr %4, align 8
  %71 = getelementptr inbounds nuw %struct.LogicalTape, ptr %70, i32 0, i32 0
  %72 = load ptr, ptr %71, align 8
  %73 = load ptr, ptr %4, align 8
  %74 = call i64 @ltsGetBlock(ptr noundef %72, ptr noundef %73)
  store i64 %74, ptr %9, align 8
  %75 = load i64, ptr %9, align 8
  %76 = load ptr, ptr %4, align 8
  %77 = getelementptr inbounds nuw %struct.LogicalTape, ptr %76, i32 0, i32 8
  %78 = load ptr, ptr %77, align 8
  %79 = getelementptr inbounds nuw i8, ptr %78, i64 8176
  %80 = getelementptr inbounds nuw %struct.TapeBlockTrailer, ptr %79, i32 0, i32 1
  store i64 %75, ptr %80, align 8
  %81 = load ptr, ptr %4, align 8
  %82 = getelementptr inbounds nuw %struct.LogicalTape, ptr %81, i32 0, i32 0
  %83 = load ptr, ptr %82, align 8
  %84 = load ptr, ptr %4, align 8
  %85 = getelementptr inbounds nuw %struct.LogicalTape, ptr %84, i32 0, i32 5
  %86 = load i64, ptr %85, align 8
  %87 = load ptr, ptr %4, align 8
  %88 = getelementptr inbounds nuw %struct.LogicalTape, ptr %87, i32 0, i32 8
  %89 = load ptr, ptr %88, align 8
  call void @ltsWriteBlock(ptr noundef %83, i64 noundef %86, ptr noundef %89)
  %90 = load ptr, ptr %4, align 8
  %91 = getelementptr inbounds nuw %struct.LogicalTape, ptr %90, i32 0, i32 5
  %92 = load i64, ptr %91, align 8
  %93 = load ptr, ptr %4, align 8
  %94 = getelementptr inbounds nuw %struct.LogicalTape, ptr %93, i32 0, i32 8
  %95 = load ptr, ptr %94, align 8
  %96 = getelementptr inbounds nuw i8, ptr %95, i64 8176
  %97 = getelementptr inbounds nuw %struct.TapeBlockTrailer, ptr %96, i32 0, i32 0
  store i64 %92, ptr %97, align 8
  %98 = load i64, ptr %9, align 8
  %99 = load ptr, ptr %4, align 8
  %100 = getelementptr inbounds nuw %struct.LogicalTape, ptr %99, i32 0, i32 5
  store i64 %98, ptr %100, align 8
  %101 = load ptr, ptr %4, align 8
  %102 = getelementptr inbounds nuw %struct.LogicalTape, ptr %101, i32 0, i32 11
  store i32 0, ptr %102, align 8
  %103 = load ptr, ptr %4, align 8
  %104 = getelementptr inbounds nuw %struct.LogicalTape, ptr %103, i32 0, i32 12
  store i32 0, ptr %104, align 4
  call void @llvm.lifetime.end.p0(i64 8, ptr %9) #7
  br label %105

105:                                              ; preds = %69, %48
  %106 = load ptr, ptr %4, align 8
  %107 = getelementptr inbounds nuw %struct.LogicalTape, ptr %106, i32 0, i32 11
  %108 = load i32, ptr %107, align 8
  %109 = sext i32 %108 to i64
  %110 = sub i64 8176, %109
  store i64 %110, ptr %8, align 8
  %111 = load i64, ptr %8, align 8
  %112 = load i64, ptr %6, align 8
  %113 = icmp ugt i64 %111, %112
  br i1 %113, label %114, label %116

114:                                              ; preds = %105
  %115 = load i64, ptr %6, align 8
  store i64 %115, ptr %8, align 8
  br label %116

116:                                              ; preds = %114, %105
  %117 = load ptr, ptr %4, align 8
  %118 = getelementptr inbounds nuw %struct.LogicalTape, ptr %117, i32 0, i32 8
  %119 = load ptr, ptr %118, align 8
  %120 = load ptr, ptr %4, align 8
  %121 = getelementptr inbounds nuw %struct.LogicalTape, ptr %120, i32 0, i32 11
  %122 = load i32, ptr %121, align 8
  %123 = sext i32 %122 to i64
  %124 = getelementptr inbounds i8, ptr %119, i64 %123
  %125 = load ptr, ptr %5, align 8
  %126 = load i64, ptr %8, align 8
  call void @llvm.memcpy.p0.p0.i64(ptr align 1 %124, ptr align 1 %125, i64 %126, i1 false)
  %127 = load ptr, ptr %4, align 8
  %128 = getelementptr inbounds nuw %struct.LogicalTape, ptr %127, i32 0, i32 3
  store i8 1, ptr %128, align 2
  %129 = load i64, ptr %8, align 8
  %130 = load ptr, ptr %4, align 8
  %131 = getelementptr inbounds nuw %struct.LogicalTape, ptr %130, i32 0, i32 11
  %132 = load i32, ptr %131, align 8
  %133 = sext i32 %132 to i64
  %134 = add i64 %133, %129
  %135 = trunc i64 %134 to i32
  store i32 %135, ptr %131, align 8
  %136 = load ptr, ptr %4, align 8
  %137 = getelementptr inbounds nuw %struct.LogicalTape, ptr %136, i32 0, i32 12
  %138 = load i32, ptr %137, align 4
  %139 = load ptr, ptr %4, align 8
  %140 = getelementptr inbounds nuw %struct.LogicalTape, ptr %139, i32 0, i32 11
  %141 = load i32, ptr %140, align 8
  %142 = icmp slt i32 %138, %141
  br i1 %142, label %143, label %149

143:                                              ; preds = %116
  %144 = load ptr, ptr %4, align 8
  %145 = getelementptr inbounds nuw %struct.LogicalTape, ptr %144, i32 0, i32 11
  %146 = load i32, ptr %145, align 8
  %147 = load ptr, ptr %4, align 8
  %148 = getelementptr inbounds nuw %struct.LogicalTape, ptr %147, i32 0, i32 12
  store i32 %146, ptr %148, align 4
  br label %149

149:                                              ; preds = %143, %116
  %150 = load ptr, ptr %5, align 8
  %151 = load i64, ptr %8, align 8
  %152 = getelementptr inbounds nuw i8, ptr %150, i64 %151
  store ptr %152, ptr %5, align 8
  %153 = load i64, ptr %8, align 8
  %154 = load i64, ptr %6, align 8
  %155 = sub i64 %154, %153
  store i64 %155, ptr %6, align 8
  br label %45, !llvm.loop !6

156:                                              ; preds = %45
  call void @llvm.lifetime.end.p0(i64 8, ptr %8) #7
  call void @llvm.lifetime.end.p0(i64 8, ptr %7) #7
  ret void
}