; Function Attrs: nounwind uwtable
define dso_local void @LogicalTapeWrite(ptr noundef captures(none) %0, ptr noundef readonly captures(none) %1, i64 noundef %2) local_unnamed_addr #0 {
  %4 = load ptr, ptr %0, align 8
  %5 = getelementptr inbounds nuw i8, ptr %0, i64 48
  %6 = load ptr, ptr %5, align 8
  %7 = icmp eq ptr %6, null
  br i1 %7, label %8, label %11

8:                                                ; preds = %3
  %9 = tail call ptr @palloc(i64 noundef 8192) #10
  store ptr %9, ptr %5, align 8
  %10 = getelementptr inbounds nuw i8, ptr %0, i64 56
  store i32 8192, ptr %10, align 8
  br label %11

11:                                               ; preds = %8, %3
  %12 = getelementptr inbounds nuw i8, ptr %0, i64 24
  %13 = load i64, ptr %12, align 8
  %14 = icmp eq i64 %13, -1
  br i1 %14, label %15, label %20

15:                                               ; preds = %11
  %16 = tail call fastcc i64 @ltsGetBlock(ptr noundef %4, ptr noundef nonnull %0)
  store i64 %16, ptr %12, align 8
  %17 = getelementptr inbounds nuw i8, ptr %0, i64 16
  store i64 %16, ptr %17, align 8
  %18 = load ptr, ptr %5, align 8
  %19 = getelementptr inbounds nuw i8, ptr %18, i64 8176
  store i64 -1, ptr %19, align 8
  br label %20

20:                                               ; preds = %15, %11
  %.not49 = icmp eq i64 %2, 0
  br i1 %.not49, label %._crit_edge, label %.lr.ph

.lr.ph:                                           ; preds = %20
  %21 = getelementptr inbounds nuw i8, ptr %0, i64 64
  %22 = getelementptr inbounds nuw i8, ptr %0, i64 10
  %23 = getelementptr inbounds nuw i8, ptr %0, i64 68
  %.pre = load i32, ptr %21, align 8
  br label %24

24:                                               ; preds = %.lr.ph, %56
  %25 = phi i32 [ %.pre, %.lr.ph ], [ %52, %56 ]
  %.051 = phi ptr [ %1, %.lr.ph ], [ %57, %56 ]
  %.04650 = phi i64 [ %2, %.lr.ph ], [ %58, %56 ]
  %26 = icmp sgt i32 %25, 8175
  br i1 %26, label %27, label %44

27:                                               ; preds = %24
  %28 = load i8, ptr %22, align 2, !range !4, !noundef !5
  %29 = trunc nuw i8 %28 to i1
  br i1 %29, label %33, label %30

30:                                               ; preds = %27
  %31 = tail call zeroext i1 @errstart_cold(i32 noundef 21, ptr noundef null) #11
  tail call void @llvm.assume(i1 %31)
  %32 = tail call i32 (ptr, ...) @errmsg_internal(ptr noundef nonnull @.str.2) #10
  tail call void @errfinish(ptr noundef nonnull @.str.1, i32 noundef 797, ptr noundef nonnull @__func__.LogicalTapeWrite) #10
  unreachable

33:                                               ; preds = %27
  %34 = load ptr, ptr %0, align 8
  %35 = tail call fastcc i64 @ltsGetBlock(ptr noundef %34, ptr noundef nonnull %0)
  %36 = load ptr, ptr %5, align 8
  %37 = getelementptr inbounds nuw i8, ptr %36, i64 8184
  store i64 %35, ptr %37, align 8
  %38 = load ptr, ptr %0, align 8
  %39 = load i64, ptr %12, align 8
  %40 = load ptr, ptr %5, align 8
  tail call fastcc void @ltsWriteBlock(ptr noundef %38, i64 noundef %39, ptr noundef %40)
  %41 = load i64, ptr %12, align 8
  %42 = load ptr, ptr %5, align 8
  %43 = getelementptr inbounds nuw i8, ptr %42, i64 8176
  store i64 %41, ptr %43, align 8
  store i64 %35, ptr %12, align 8
  store i32 0, ptr %21, align 8
  store i32 0, ptr %23, align 4
  br label %44

44:                                               ; preds = %33, %24
  %45 = phi i32 [ 0, %33 ], [ %25, %24 ]
  %46 = sext i32 %45 to i64
  %47 = sub nsw i64 8176, %46
  %spec.select = tail call i64 @llvm.umin.i64(i64 %47, i64 %.04650)
  %48 = load ptr, ptr %5, align 8
  %49 = getelementptr inbounds i8, ptr %48, i64 %46
  tail call void @llvm.memcpy.p0.p0.i64(ptr align 1 %49, ptr align 1 %.051, i64 %spec.select, i1 false)
  store i8 1, ptr %22, align 2
  %50 = load i32, ptr %21, align 8
  %51 = trunc i64 %spec.select to i32
  %52 = add i32 %50, %51
  store i32 %52, ptr %21, align 8
  %53 = load i32, ptr %23, align 4
  %54 = icmp slt i32 %53, %52
  br i1 %54, label %55, label %56

55:                                               ; preds = %44
  store i32 %52, ptr %23, align 4
  br label %56

56:                                               ; preds = %55, %44
  %57 = getelementptr inbounds nuw i8, ptr %.051, i64 %spec.select
  %58 = sub i64 %.04650, %spec.select
  %.not = icmp eq i64 %58, 0
  br i1 %.not, label %._crit_edge, label %24, !llvm.loop !6

._crit_edge:                                      ; preds = %56, %20
  ret void
}